target datalayout = "e-m:e-p270:32:32-p271:32:32-p272:64:64-i64:64-i128:128-f80:128-n8:16:32:64-S128"
target triple = "x86_64-pc-linux-gnu"

%struct.lv_subject_t = type { %struct.lv_ll_t, %union.lv_subject_value_t, %union.lv_subject_value_t, ptr, i32 }
%struct.lv_ll_t = type { i32, ptr, ptr }
%union.lv_subject_value_t = type { ptr }
%struct._lv_observer_t = type { ptr, ptr, ptr, ptr, i8 }

; Function Attrs: nounwind uwtable
define void @lv_subject_notify(ptr noundef %0) #0 {
  %2 = alloca ptr, align 8
  %3 = alloca ptr, align 8
  store ptr %0, ptr %2, align 8, !tbaa !3
  br label %4

4:                                                ; preds = %1
  %5 = load ptr, ptr %2, align 8, !tbaa !3
  %6 = icmp ne ptr %5, null
  br i1 %6, label %11, label %7

7:                                                ; preds = %4
  br label %8

8:                                                ; preds = %7
  br label %9

9:                                                ; preds = %8
  br label %10

10:                                               ; preds = %9, %10
  br label %10

11:                                               ; preds = %4
  br label %12

12:                                               ; preds = %11
  call void @llvm.lifetime.start.p0(i64 8, ptr %3) #6
  %13 = load ptr, ptr %2, align 8, !tbaa !3
  %14 = getelementptr inbounds nuw %struct.lv_subject_t, ptr %13, i32 0, i32 0
  %15 = call ptr @lv_ll_get_head(ptr noundef %14)
  store ptr %15, ptr %3, align 8, !tbaa !17
  br label %16

16:                                               ; preds = %25, %12
  %17 = load ptr, ptr %3, align 8, !tbaa !17
  %18 = icmp ne ptr %17, null
  br i1 %18, label %19, label %30

19:                                               ; preds = %16
  %20 = load ptr, ptr %3, align 8, !tbaa !17
  %21 = getelementptr inbounds nuw %struct._lv_observer_t, ptr %20, i32 0, i32 4
  %22 = load i8, ptr %21, align 8
  %23 = and i8 %22, -3
  %24 = or i8 %23, 0
  store i8 %24, ptr %21, align 8
  br label %25

25:                                               ; preds = %19
  %26 = load ptr, ptr %2, align 8, !tbaa !3
  %27 = getelementptr inbounds nuw %struct.lv_subject_t, ptr %26, i32 0, i32 0
  %28 = load ptr, ptr %3, align 8, !tbaa !17
  %29 = call ptr @lv_ll_get_next(ptr noundef %27, ptr noundef %28)
  store ptr %29, ptr %3, align 8, !tbaa !17
  br label %16, !llvm.loop !42

30:                                               ; preds = %16
  br label %31

31:                                               ; preds = %82, %30
  %32 = load ptr, ptr %2, align 8, !tbaa !3
  %33 = getelementptr inbounds nuw %struct.lv_subject_t, ptr %32, i32 0, i32 4
  %34 = load i32, ptr %33, align 8
  %35 = and i32 %34, -268435457
  %36 = or i32 %35, 0
  store i32 %36, ptr %33, align 8
  %37 = load ptr, ptr %2, align 8, !tbaa !3
  %38 = getelementptr inbounds nuw %struct.lv_subject_t, ptr %37, i32 0, i32 0
  %39 = call ptr @lv_ll_get_head(ptr noundef %38)
  store ptr %39, ptr %3, align 8, !tbaa !17
  br label %40

40:                                               ; preds = %76, %31
  %41 = load ptr, ptr %3, align 8, !tbaa !17
  %42 = icmp ne ptr %41, null
  br i1 %42, label %43, label %81

43:                                               ; preds = %40
  %44 = load ptr, ptr %3, align 8, !tbaa !17
  %45 = getelementptr inbounds nuw %struct._lv_observer_t, ptr %44, i32 0, i32 1
  %46 = load ptr, ptr %45, align 8, !tbaa !28
  %47 = icmp ne ptr %46, null
  br i1 %47, label %48, label %75

48:                                               ; preds = %43
  %49 = load ptr, ptr %3, align 8, !tbaa !17
  %50 = getelementptr inbounds nuw %struct._lv_observer_t, ptr %49, i32 0, i32 4
  %51 = load i8, ptr %50, align 8
  %52 = lshr i8 %51, 1
  %53 = and i8 %52, 1
  %54 = zext i8 %53 to i32
  %55 = icmp eq i32 %54, 0
  br i1 %55, label %56, label %75

56:                                               ; preds = %48
  %57 = load ptr, ptr %3, align 8, !tbaa !17
  %58 = getelementptr inbounds nuw %struct._lv_observer_t, ptr %57, i32 0, i32 1
  %59 = load ptr, ptr %58, align 8, !tbaa !28
  %60 = load ptr, ptr %3, align 8, !tbaa !17
  %61 = load ptr, ptr %2, align 8, !tbaa !3
  call void %59(ptr noundef %60, ptr noundef %61)
  %62 = load ptr, ptr %2, align 8, !tbaa !3
  %63 = getelementptr inbounds nuw %struct.lv_subject_t, ptr %62, i32 0, i32 4
  %64 = load i32, ptr %63, align 8
  %65 = lshr i32 %64, 28
  %66 = and i32 %65, 1
  %67 = icmp ne i32 %66, 0
  br i1 %67, label %68, label %69

68:                                               ; preds = %56
  br label %81

69:                                               ; preds = %56
  %70 = load ptr, ptr %3, align 8, !tbaa !17
  %71 = getelementptr inbounds nuw %struct._lv_observer_t, ptr %70, i32 0, i32 4
  %72 = load i8, ptr %71, align 8
  %73 = and i8 %72, -3
  %74 = or i8 %73, 2
  store i8 %74, ptr %71, align 8
  br label %75

75:                                               ; preds = %69, %48, %43
  br label %76

76:                                               ; preds = %75
  %77 = load ptr, ptr %2, align 8, !tbaa !3
  %78 = getelementptr inbounds nuw %struct.lv_subject_t, ptr %77, i32 0, i32 0
  %79 = load ptr, ptr %3, align 8, !tbaa !17
  %80 = call ptr @lv_ll_get_next(ptr noundef %78, ptr noundef %79)
  store ptr %80, ptr %3, align 8, !tbaa !17
  br label %40, !llvm.loop !43

81:                                               ; preds = %68, %40
  br label %82

82:                                               ; preds = %81
  %83 = load ptr, ptr %2, align 8, !tbaa !3
  %84 = getelementptr inbounds nuw %struct.lv_subject_t, ptr %83, i32 0, i32 4
  %85 = load i32, ptr %84, align 8
  %86 = lshr i32 %85, 28
  %87 = and i32 %86, 1
  %88 = icmp ne i32 %87, 0
  br i1 %88, label %31, label %89, !llvm.loop !44

89:                                               ; preds = %82
  call void @llvm.lifetime.end.p0(i64 8, ptr %3) #6
  ret void
}