; Function Attrs: nounwind uwtable
define void @lv_subject_notify(ptr noundef %0) local_unnamed_addr #0 {
  %.not = icmp eq ptr %0, null
  br i1 %.not, label %.preheader, label %2

.preheader:                                       ; preds = %1, %.preheader
  br label %.preheader

2:                                                ; preds = %1
  %3 = tail call ptr @lv_ll_get_head(ptr noundef nonnull %0) #9
  %.not2127 = icmp eq ptr %3, null
  br i1 %.not2127, label %.preheader26, label %.lr.ph

.preheader26:                                     ; preds = %.lr.ph, %2
  %4 = getelementptr inbounds nuw i8, ptr %0, i64 48
  %.pre = load i32, ptr %4, align 8
  br label %9

.lr.ph:                                           ; preds = %2, %.lr.ph
  %.028 = phi ptr [ %8, %.lr.ph ], [ %3, %2 ]
  %5 = getelementptr inbounds nuw i8, ptr %.028, i64 32
  %6 = load i8, ptr %5, align 8
  %7 = and i8 %6, -3
  store i8 %7, ptr %5, align 8
  %8 = tail call ptr @lv_ll_get_next(ptr noundef nonnull %0, ptr noundef nonnull %.028) #9
  %.not21 = icmp eq ptr %8, null
  br i1 %.not21, label %.preheader26, label %.lr.ph, !llvm.loop !30

9:                                                ; preds = %.preheader26, %._crit_edge
  %10 = phi i32 [ %.pre, %.preheader26 ], [ %28, %._crit_edge ]
  %11 = and i32 %10, -268435457
  store i32 %11, ptr %4, align 8
  %12 = tail call ptr @lv_ll_get_head(ptr noundef nonnull %0) #9
  %.not2229 = icmp eq ptr %12, null
  br i1 %.not2229, label %._crit_edge, label %.lr.ph31

.lr.ph31:                                         ; preds = %9, %26
  %.130 = phi ptr [ %27, %26 ], [ %12, %9 ]
  %13 = getelementptr inbounds nuw i8, ptr %.130, i64 8
  %14 = load ptr, ptr %13, align 8, !tbaa !12
  %.not23 = icmp eq ptr %14, null
  br i1 %.not23, label %26, label %15

15:                                               ; preds = %.lr.ph31
  %16 = getelementptr inbounds nuw i8, ptr %.130, i64 32
  %17 = load i8, ptr %16, align 8
  %18 = and i8 %17, 2
  %19 = icmp eq i8 %18, 0
  br i1 %19, label %20, label %26

20:                                               ; preds = %15
  tail call void %14(ptr noundef nonnull %.130, ptr noundef nonnull %0) #9
  %21 = load i32, ptr %4, align 8
  %22 = and i32 %21, 268435456
  %.not24 = icmp eq i32 %22, 0
  br i1 %.not24, label %23, label %._crit_edge

23:                                               ; preds = %20
  %24 = load i8, ptr %16, align 8
  %25 = or i8 %24, 2
  store i8 %25, ptr %16, align 8
  br label %26

26:                                               ; preds = %.lr.ph31, %15, %23
  %27 = tail call ptr @lv_ll_get_next(ptr noundef nonnull %0, ptr noundef nonnull %.130) #9
  %.not22 = icmp eq ptr %27, null
  br i1 %.not22, label %._crit_edge, label %.lr.ph31, !llvm.loop !31

._crit_edge:                                      ; preds = %20, %26, %9
  %28 = load i32, ptr %4, align 8
  %29 = and i32 %28, 268435456
  %.not25 = icmp eq i32 %29, 0
  br i1 %.not25, label %30, label %9, !llvm.loop !32

30:                                               ; preds = %._crit_edge
  ret void
}